target datalayout = "e-m:e-p270:32:32-p271:32:32-p272:64:64-i64:64-i128:128-f80:128-n8:16:32:64-S128"
target triple = "x86_64-pc-linux-gnu"

%class.nnf = type { ptr }
%"struct.nnf::imp" = type { ptr, %class.vector, %class.ref_vector, %"struct.std::array", %class.ref_vector, %class.ref_vector.2, %class.ref_vector.2, [4 x ptr], %class.skolemizer, i32, i8, ptr, ptr, i64 }
%class.vector = type { ptr }
%"struct.std::array" = type { [4 x %class.act_cache] }
%class.act_cache = type <{ ptr, %class.cmap, %class.svector, i32, i32, i32, [4 x i8] }>
%class.cmap = type { %class.chashtable }
%class.chashtable = type { ptr, i32, i32, i32, i32, i32, i32, i32, ptr, ptr, ptr }
%class.svector = type { %class.vector.1 }
%class.vector.1 = type { ptr }
%class.ref_vector = type { %class.ref_vector_core }
%class.ref_vector_core = type { %class.ref_manager_wrapper, %class.ptr_vector }
%class.ref_manager_wrapper = type { ptr }
%class.ptr_vector = type { %class.vector.0 }
%class.vector.0 = type { ptr }
%class.ref_vector.2 = type { %class.ref_vector_core.3 }
%class.ref_vector_core.3 = type { %class.ref_manager_wrapper.4, %class.ptr_vector.5 }
%class.ref_manager_wrapper.4 = type { ptr }
%class.ptr_vector.5 = type { %class.vector.6 }
%class.vector.6 = type { ptr }
%class.skolemizer = type { ptr, %class.var_subst, %class.symbol, i8, [7 x i8], %class.act_cache, %class.act_cache, i8, %class.used_vars }
%class.var_subst = type { %class.beta_reducer, i8, [7 x i8] }
%class.beta_reducer = type <{ %class.rewriter_tpl, [8 x i8] }>
%class.rewriter_tpl = type { %class.rewriter_core, ptr, i32, %class.ptr_vector, %class.var_shifter, %class.inv_var_shifter, %class.obj_ref, %class.obj_ref.13, %class.obj_ref.13, %class.svector.14 }
%class.rewriter_core = type { ptr, ptr, i8, i8, %class.ptr_vector.7, ptr, %class.svector.9, %class.ref_vector, %class.ptr_vector.7, ptr, %class.ref_vector.2, %class.obj_hashtable, ptr, i32, %class.svector.11 }
%class.svector.9 = type { %class.vector.10 }
%class.vector.10 = type { ptr }
%class.ptr_vector.7 = type { %class.vector.8 }
%class.vector.8 = type { ptr }
%class.obj_hashtable = type { %class.core_hashtable.base, [4 x i8] }
%class.core_hashtable.base = type <{ ptr, i32, i32, i32 }>
%class.svector.11 = type { %class.vector.12 }
%class.vector.12 = type { ptr }
%class.var_shifter = type <{ %class.var_shifter_core, i32, i32, i32, [4 x i8] }>
%class.var_shifter_core = type { %class.rewriter_core }
%class.inv_var_shifter = type <{ %class.var_shifter_core, i32, [4 x i8] }>
%class.obj_ref = type { ptr, ptr }
%class.obj_ref.13 = type { ptr, ptr }
%class.svector.14 = type { %class.vector.15 }
%class.vector.15 = type { ptr }
%class.symbol = type { ptr }
%class.used_vars = type { %class.ptr_vector.16, %class.hashtable, %class.svector.21, i32, i32 }
%class.ptr_vector.16 = type { %class.vector.17 }
%class.vector.17 = type { ptr }
%class.hashtable = type { %class.core_hashtable.base.20, [4 x i8] }
%class.core_hashtable.base.20 = type <{ ptr, i32, i32, i32 }>
%class.svector.21 = type { %class.vector.22 }
%class.vector.22 = type { ptr }
%class.ast_manager = type { %class.reslimit, %class.small_object_allocator, %class.family_manager, %class.parray_manager, %class.dependency_manager, %class.parray_manager.38, %class.ptr_vector.41, i32, i8, %class.ast_table, %class.obj_map, %class.id_gen, %class.id_gen, ptr, ptr, ptr, ptr, ptr, i32, i8, [3 x i8], %class.u_map, ptr, i8, i8, ptr, %class.symbol, %class.obj_map.51, ptr }
%class.reslimit = type { %"struct.std::atomic", i8, i64, i64, %class.svector.23, %class.ptr_vector.25 }
%"struct.std::atomic" = type { %"struct.std::__atomic_base" }
%"struct.std::__atomic_base" = type { i32 }
%class.svector.23 = type { %class.vector.24 }
%class.vector.24 = type { ptr }
%class.ptr_vector.25 = type { %class.vector.26 }
%class.vector.26 = type { ptr }
%class.small_object_allocator = type { [32 x ptr], [32 x ptr], i64 }
%class.family_manager = type { i32, %class.symbol_table, %class.svector.32 }
%class.symbol_table = type { %class.core_hashtable.27, %class.vector.29, %class.svector.30 }
%class.core_hashtable.27 = type <{ ptr, i32, i32, i32, [4 x i8] }>
%class.vector.29 = type { ptr }
%class.svector.30 = type { %class.vector.31 }
%class.vector.31 = type { ptr }
%class.svector.32 = type { %class.vector.33 }
%class.vector.33 = type { ptr }
%class.parray_manager = type { ptr, ptr, %class.ptr_vector.34, %class.ptr_vector.34 }
%class.ptr_vector.34 = type { %class.vector.35 }
%class.vector.35 = type { ptr }
%class.dependency_manager = type { ptr, ptr, %class.ptr_vector.36 }
%class.ptr_vector.36 = type { %class.vector.37 }
%class.vector.37 = type { ptr }
%class.parray_manager.38 = type { ptr, ptr, %class.ptr_vector.39, %class.ptr_vector.39 }
%class.ptr_vector.39 = type { %class.vector.40 }
%class.vector.40 = type { ptr }
%class.ptr_vector.41 = type { %class.vector.42 }
%class.vector.42 = type { ptr }
%class.ast_table = type { %class.chashtable.43 }
%class.chashtable.43 = type { ptr, i32, i32, i32, i32, i32, i32, i32, ptr, ptr, ptr }
%class.obj_map = type { %class.core_hashtable.45 }
%class.core_hashtable.45 = type <{ ptr, i32, i32, i32, [4 x i8] }>
%class.id_gen = type { i32, %class.svector.14 }
%class.u_map = type { %class.map }
%class.map = type { %class.table2map }
%class.table2map = type { %class.core_hashtable.49 }
%class.core_hashtable.49 = type <{ ptr, i32, i32, i32, [4 x i8] }>
%class.obj_map.51 = type { %class.core_hashtable.52 }
%class.core_hashtable.52 = type <{ ptr, i32, i32, i32, [4 x i8] }>

; Function Attrs: mustprogress nounwind uwtable
define linkonce_odr hidden noundef zeroext i1 @_ZNK11ast_manager14proofs_enabledEv(ptr noundef nonnull align 8 dereferenceable(976) %0) #5 comdat align 2 {
  %2 = alloca ptr, align 8
  store ptr %0, ptr %2, align 8, !tbaa !8
  %3 = load ptr, ptr %2, align 8
  %4 = getelementptr inbounds nuw %class.ast_manager, ptr %3, i32 0, i32 7
  %5 = load i32, ptr %4, align 8, !tbaa !147
  %6 = icmp ne i32 %5, 0
  ret i1 %6
}

; Function Attrs: mustprogress nounwind uwtable
define linkonce_odr hidden noundef nonnull align 8 dereferenceable(92) ptr @_ZNSt14__array_traitsI9act_cacheLm4EE6_S_refERA4_KS0_m(ptr noundef nonnull align 8 dereferenceable(384) %0, i64 noundef %1) #5 comdat align 2 {
  %3 = alloca ptr, align 8
  %4 = alloca i64, align 8
  store ptr %0, ptr %3, align 8, !tbaa !20
  store i64 %1, ptr %4, align 8, !tbaa !261
  %5 = load ptr, ptr %3, align 8, !tbaa !20
  %6 = load i64, ptr %4, align 8, !tbaa !261
  %7 = getelementptr inbounds nuw [4 x %class.act_cache], ptr %5, i64 0, i64 %6
  ret ptr %7
}

; Function Attrs: mustprogress nounwind uwtable
define linkonce_odr hidden noundef zeroext i1 @_ZNK3nnf3imp14proofs_enabledEv(ptr noundef nonnull align 8 dereferenceable(1352) %0) #5 comdat align 2 {
  %2 = alloca ptr, align 8
  store ptr %0, ptr %2, align 8, !tbaa !17
  %3 = load ptr, ptr %2, align 8
  %4 = getelementptr inbounds nuw %"struct.nnf::imp", ptr %3, i32 0, i32 0
  %5 = load ptr, ptr %4, align 8, !tbaa !104
  %6 = call noundef zeroext i1 @_ZNK11ast_manager14proofs_enabledEv(ptr noundef nonnull align 8 dereferenceable(976) %5)
  ret i1 %6
}

; Function Attrs: mustprogress nounwind uwtable
define linkonce_odr hidden noundef nonnull align 8 dereferenceable(92) ptr @_ZNSt5arrayI9act_cacheLm4EEixEm(ptr noundef nonnull align 8 dereferenceable(384) %0, i64 noundef %1) #5 comdat align 2 {
  %3 = alloca ptr, align 8
  %4 = alloca i64, align 8
  store ptr %0, ptr %3, align 8, !tbaa !124
  store i64 %1, ptr %4, align 8, !tbaa !261
  %5 = load ptr, ptr %3, align 8
  %6 = getelementptr inbounds nuw %"struct.std::array", ptr %5, i32 0, i32 0
  %7 = load i64, ptr %4, align 8, !tbaa !261
  %8 = call noundef nonnull align 8 dereferenceable(92) ptr @_ZNSt14__array_traitsI9act_cacheLm4EE6_S_refERA4_KS0_m(ptr noundef nonnull align 8 dereferenceable(384) %6, i64 noundef %7) #3
  ret ptr %8
}

; Function Attrs: mustprogress uwtable
define linkonce_odr hidden void @_ZN3nnf3imp11reset_cacheEv(ptr noundef nonnull align 8 dereferenceable(1352) %0) #4 comdat align 2 {
  %2 = alloca ptr, align 8
  %3 = alloca i32, align 4
  store ptr %0, ptr %2, align 8, !tbaa !17
  %4 = load ptr, ptr %2, align 8
  call void @llvm.lifetime.start.p0(i64 4, ptr %3) #3
  store i32 0, ptr %3, align 4, !tbaa !18
  br label %5

5:                                                ; preds = %22, %1
  %6 = load i32, ptr %3, align 4, !tbaa !18
  %7 = icmp ult i32 %6, 4
  br i1 %7, label %9, label %8

8:                                                ; preds = %5
  call void @llvm.lifetime.end.p0(i64 4, ptr %3) #3
  br label %25

9:                                                ; preds = %5
  %10 = getelementptr inbounds nuw %"struct.nnf::imp", ptr %4, i32 0, i32 3
  %11 = load i32, ptr %3, align 4, !tbaa !18
  %12 = zext i32 %11 to i64
  %13 = call noundef nonnull align 8 dereferenceable(92) ptr @_ZNSt5arrayI9act_cacheLm4EEixEm(ptr noundef nonnull align 8 dereferenceable(384) %10, i64 noundef %12) #3
  call void @_ZN9act_cache5resetEv(ptr noundef nonnull align 8 dereferenceable(92) %13)
  %14 = call noundef zeroext i1 @_ZNK3nnf3imp14proofs_enabledEv(ptr noundef nonnull align 8 dereferenceable(1352) %4)
  br i1 %14, label %15, label %21

15:                                               ; preds = %9
  %16 = getelementptr inbounds nuw %"struct.nnf::imp", ptr %4, i32 0, i32 7
  %17 = load i32, ptr %3, align 4, !tbaa !18
  %18 = zext i32 %17 to i64
  %19 = getelementptr inbounds nuw [4 x ptr], ptr %16, i64 0, i64 %18
  %20 = load ptr, ptr %19, align 8, !tbaa !20
  call void @_ZN9act_cache5resetEv(ptr noundef nonnull align 8 dereferenceable(92) %20)
  br label %21

21:                                               ; preds = %15, %9
  br label %22

22:                                               ; preds = %21
  %23 = load i32, ptr %3, align 4, !tbaa !18
  %24 = add i32 %23, 1
  store i32 %24, ptr %3, align 4, !tbaa !18
  br label %5, !llvm.loop !112

25:                                               ; preds = %8
  ret void
}

; Function Attrs: mustprogress uwtable
define hidden void @_ZN3nnf11reset_cacheEv(ptr noundef nonnull align 8 dereferenceable(8) %0) #4 align 2 {
  %2 = alloca ptr, align 8
  store ptr %0, ptr %2, align 8, !tbaa !3
  %3 = load ptr, ptr %2, align 8
  %4 = getelementptr inbounds nuw %class.nnf, ptr %3, i32 0, i32 0
  %5 = load ptr, ptr %4, align 8, !tbaa !14
  call void @_ZN3nnf3imp11reset_cacheEv(ptr noundef nonnull align 8 dereferenceable(1352) %5)
  ret void
}