; Function Attrs: mustprogress uwtable
define hidden void @_ZN3nnf11reset_cacheEv(ptr noundef nonnull readonly align 8 captures(none) dereferenceable(8) %0) local_unnamed_addr #3 align 2 {
  %2 = load ptr, ptr %0, align 8, !tbaa !3
  %3 = getelementptr inbounds nuw i8, ptr %2, i64 32
  %4 = getelementptr inbounds nuw i8, ptr %2, i64 464
  br label %5

5:                                                ; preds = %13, %1
  %indvars.iv.i = phi i64 [ 0, %1 ], [ %indvars.iv.next.i, %13 ]
  %6 = getelementptr inbounds nuw [4 x %class.act_cache], ptr %3, i64 0, i64 %indvars.iv.i
  tail call void @_ZN9act_cache5resetEv(ptr noundef nonnull align 8 dereferenceable(92) %6)
  %7 = load ptr, ptr %2, align 8, !tbaa !21
  %8 = getelementptr inbounds nuw i8, ptr %7, i64 712
  %9 = load i32, ptr %8, align 8, !tbaa !86
  %.not.i = icmp eq i32 %9, 0
  br i1 %.not.i, label %13, label %10

10:                                               ; preds = %5
  %11 = getelementptr inbounds nuw [4 x ptr], ptr %4, i64 0, i64 %indvars.iv.i
  %12 = load ptr, ptr %11, align 8, !tbaa !145
  tail call void @_ZN9act_cache5resetEv(ptr noundef nonnull align 8 dereferenceable(92) %12)
  br label %13

13:                                               ; preds = %10, %5
  %indvars.iv.next.i = add nuw nsw i64 %indvars.iv.i, 1
  %exitcond.not.i = icmp eq i64 %indvars.iv.next.i, 4
  br i1 %exitcond.not.i, label %_ZN3nnf3imp11reset_cacheEv.exit, label %5, !llvm.loop !186

_ZN3nnf3imp11reset_cacheEv.exit:                  ; preds = %13
  ret void
}